target datalayout = "e-m:e-p270:32:32-p271:32:32-p272:64:64-i64:64-i128:128-f80:128-n8:16:32:64-S128"
target triple = "x86_64-pc-linux-gnu"

%"class.pbrt::SampledSpectrum" = type { %"class.pstd::array" }
%"class.pstd::array" = type { [4 x float] }
%class.anon.13 = type { ptr, ptr, ptr }
%"class.pbrt::TaggedPointer" = type { i64 }

@.str.95 = private unnamed_addr constant [112 x i8] c"generated/home/dtcxzyw/WorkSpace/Projects/compilers/llvm-opt-benchmark/bench/pbrt-v4/pbrt-v4/src/pbrt/cameras.h\00", align 1
@.str.96 = private unnamed_addr constant [42 x i8] c"We() unimplemented for OrthographicCamera\00", align 1
@.str.97 = private unnamed_addr constant [39 x i8] c"We() unimplemented for SphericalCamera\00", align 1
@.str.98 = private unnamed_addr constant [39 x i8] c"We() unimplemented for RealisticCamera\00", align 1

; Function Attrs: mustprogress uwtable
define linkonce_odr dso_local { <2 x float>, <2 x float> } @_ZNK4pbrt15RealisticCamera2WeERKNS_3RayERNS_18SampledWavelengthsEPNS_6Point2IfEE(ptr noundef nonnull align 8 dereferenceable(1128) %0, ptr noundef nonnull align 8 dereferenceable(40) %1, ptr noundef nonnull align 4 dereferenceable(32) %2, ptr noundef %3) #1 comdat align 2 {
  %5 = alloca ptr, align 8
  %6 = alloca ptr, align 8
  %7 = alloca ptr, align 8
  %8 = alloca ptr, align 8
  store ptr %0, ptr %5, align 8, !tbaa !197
  store ptr %1, ptr %6, align 8, !tbaa !58
  store ptr %2, ptr %7, align 8, !tbaa !51
  store ptr %3, ptr %8, align 8, !tbaa !60
  call void @_ZN4pbrt8LogFatalENS_8LogLevelEPKciS2_(i32 noundef 2, ptr noundef @.str.95, i32 noundef 491, ptr noundef @.str.98) #22
  unreachable
}

; Function Attrs: mustprogress uwtable
define linkonce_odr dso_local { <2 x float>, <2 x float> } @_ZNK4pbrt15SphericalCamera2WeERKNS_3RayERNS_18SampledWavelengthsEPNS_6Point2IfEE(ptr noundef nonnull align 8 dereferenceable(900) %0, ptr noundef nonnull align 8 dereferenceable(40) %1, ptr noundef nonnull align 4 dereferenceable(32) %2, ptr noundef %3) #1 comdat align 2 {
  %5 = alloca ptr, align 8
  %6 = alloca ptr, align 8
  %7 = alloca ptr, align 8
  %8 = alloca ptr, align 8
  store ptr %0, ptr %5, align 8, !tbaa !201
  store ptr %1, ptr %6, align 8, !tbaa !58
  store ptr %2, ptr %7, align 8, !tbaa !51
  store ptr %3, ptr %8, align 8, !tbaa !60
  call void @_ZN4pbrt8LogFatalENS_8LogLevelEPKciS2_(i32 noundef 2, ptr noundef @.str.95, i32 noundef 436, ptr noundef @.str.97) #22
  unreachable
}

; Function Attrs: mustprogress uwtable
define linkonce_odr dso_local { <2 x float>, <2 x float> } @_ZNK4pbrt18OrthographicCamera2WeERKNS_3RayERNS_18SampledWavelengthsEPNS_6Point2IfEE(ptr noundef nonnull align 8 dereferenceable(1440) %0, ptr noundef nonnull align 8 dereferenceable(40) %1, ptr noundef nonnull align 4 dereferenceable(32) %2, ptr noundef %3) #1 comdat align 2 {
  %5 = alloca ptr, align 8
  %6 = alloca ptr, align 8
  %7 = alloca ptr, align 8
  %8 = alloca ptr, align 8
  store ptr %0, ptr %5, align 8, !tbaa !176
  store ptr %1, ptr %6, align 8, !tbaa !58
  store ptr %2, ptr %7, align 8, !tbaa !51
  store ptr %3, ptr %8, align 8, !tbaa !60
  call void @_ZN4pbrt8LogFatalENS_8LogLevelEPKciS2_(i32 noundef 2, ptr noundef @.str.95, i32 noundef 316, ptr noundef @.str.96) #22
  unreachable
}

; Function Attrs: inlinehint mustprogress uwtable
define internal { <2 x float>, <2 x float> } @"_ZZNK4pbrt6Camera2WeERKNS_3RayERNS_18SampledWavelengthsEPNS_6Point2IfEEENK3$_0clIPKNS_15RealisticCameraEEEDaT_"(ptr noundef nonnull align 8 dereferenceable(24) %0, ptr noundef %1) #11 align 2 {
  %3 = alloca %"class.pbrt::SampledSpectrum", align 4
  %4 = alloca ptr, align 8
  %5 = alloca ptr, align 8
  store ptr %0, ptr %4, align 8, !tbaa !57
  store ptr %1, ptr %5, align 8, !tbaa !197
  %6 = load ptr, ptr %4, align 8
  %7 = load ptr, ptr %5, align 8, !tbaa !197
  %8 = getelementptr inbounds nuw %class.anon.13, ptr %6, i32 0, i32 0
  %9 = load ptr, ptr %8, align 8, !tbaa !415
  %10 = getelementptr inbounds nuw %class.anon.13, ptr %6, i32 0, i32 1
  %11 = load ptr, ptr %10, align 8, !tbaa !417
  %12 = getelementptr inbounds nuw %class.anon.13, ptr %6, i32 0, i32 2
  %13 = load ptr, ptr %12, align 8, !tbaa !418
  %14 = load ptr, ptr %13, align 8, !tbaa !60
  %15 = call { <2 x float>, <2 x float> } @_ZNK4pbrt15RealisticCamera2WeERKNS_3RayERNS_18SampledWavelengthsEPNS_6Point2IfEE(ptr noundef nonnull align 8 dereferenceable(1128) %7, ptr noundef nonnull align 8 dereferenceable(40) %9, ptr noundef nonnull align 4 dereferenceable(32) %11, ptr noundef %14)
  %16 = getelementptr inbounds nuw %"class.pbrt::SampledSpectrum", ptr %3, i32 0, i32 0
  %17 = getelementptr inbounds nuw %"class.pstd::array", ptr %16, i32 0, i32 0
  %18 = getelementptr inbounds nuw { <2 x float>, <2 x float> }, ptr %17, i32 0, i32 0
  %19 = extractvalue { <2 x float>, <2 x float> } %15, 0
  store <2 x float> %19, ptr %18, align 4
  %20 = getelementptr inbounds nuw { <2 x float>, <2 x float> }, ptr %17, i32 0, i32 1
  %21 = extractvalue { <2 x float>, <2 x float> } %15, 1
  store <2 x float> %21, ptr %20, align 4
  %22 = getelementptr inbounds nuw %"class.pbrt::SampledSpectrum", ptr %3, i32 0, i32 0
  %23 = getelementptr inbounds nuw %"class.pstd::array", ptr %22, i32 0, i32 0
  %24 = load { <2 x float>, <2 x float> }, ptr %23, align 4
  ret { <2 x float>, <2 x float> } %24
}

; Function Attrs: inlinehint mustprogress uwtable
define internal { <2 x float>, <2 x float> } @"_ZZNK4pbrt6Camera2WeERKNS_3RayERNS_18SampledWavelengthsEPNS_6Point2IfEEENK3$_0clIPKNS_15SphericalCameraEEEDaT_"(ptr noundef nonnull align 8 dereferenceable(24) %0, ptr noundef %1) #11 align 2 {
  %3 = alloca %"class.pbrt::SampledSpectrum", align 4
  %4 = alloca ptr, align 8
  %5 = alloca ptr, align 8
  store ptr %0, ptr %4, align 8, !tbaa !57
  store ptr %1, ptr %5, align 8, !tbaa !201
  %6 = load ptr, ptr %4, align 8
  %7 = load ptr, ptr %5, align 8, !tbaa !201
  %8 = getelementptr inbounds nuw %class.anon.13, ptr %6, i32 0, i32 0
  %9 = load ptr, ptr %8, align 8, !tbaa !415
  %10 = getelementptr inbounds nuw %class.anon.13, ptr %6, i32 0, i32 1
  %11 = load ptr, ptr %10, align 8, !tbaa !417
  %12 = getelementptr inbounds nuw %class.anon.13, ptr %6, i32 0, i32 2
  %13 = load ptr, ptr %12, align 8, !tbaa !418
  %14 = load ptr, ptr %13, align 8, !tbaa !60
  %15 = call { <2 x float>, <2 x float> } @_ZNK4pbrt15SphericalCamera2WeERKNS_3RayERNS_18SampledWavelengthsEPNS_6Point2IfEE(ptr noundef nonnull align 8 dereferenceable(900) %7, ptr noundef nonnull align 8 dereferenceable(40) %9, ptr noundef nonnull align 4 dereferenceable(32) %11, ptr noundef %14)
  %16 = getelementptr inbounds nuw %"class.pbrt::SampledSpectrum", ptr %3, i32 0, i32 0
  %17 = getelementptr inbounds nuw %"class.pstd::array", ptr %16, i32 0, i32 0
  %18 = getelementptr inbounds nuw { <2 x float>, <2 x float> }, ptr %17, i32 0, i32 0
  %19 = extractvalue { <2 x float>, <2 x float> } %15, 0
  store <2 x float> %19, ptr %18, align 4
  %20 = getelementptr inbounds nuw { <2 x float>, <2 x float> }, ptr %17, i32 0, i32 1
  %21 = extractvalue { <2 x float>, <2 x float> } %15, 1
  store <2 x float> %21, ptr %20, align 4
  %22 = getelementptr inbounds nuw %"class.pbrt::SampledSpectrum", ptr %3, i32 0, i32 0
  %23 = getelementptr inbounds nuw %"class.pstd::array", ptr %22, i32 0, i32 0
  %24 = load { <2 x float>, <2 x float> }, ptr %23, align 4
  ret { <2 x float>, <2 x float> } %24
}

; Function Attrs: inlinehint mustprogress uwtable
define internal { <2 x float>, <2 x float> } @"_ZZNK4pbrt6Camera2WeERKNS_3RayERNS_18SampledWavelengthsEPNS_6Point2IfEEENK3$_0clIPKNS_18OrthographicCameraEEEDaT_"(ptr noundef nonnull align 8 dereferenceable(24) %0, ptr noundef %1) #11 align 2 {
  %3 = alloca %"class.pbrt::SampledSpectrum", align 4
  %4 = alloca ptr, align 8
  %5 = alloca ptr, align 8
  store ptr %0, ptr %4, align 8, !tbaa !57
  store ptr %1, ptr %5, align 8, !tbaa !176
  %6 = load ptr, ptr %4, align 8
  %7 = load ptr, ptr %5, align 8, !tbaa !176
  %8 = getelementptr inbounds nuw %class.anon.13, ptr %6, i32 0, i32 0
  %9 = load ptr, ptr %8, align 8, !tbaa !415
  %10 = getelementptr inbounds nuw %class.anon.13, ptr %6, i32 0, i32 1
  %11 = load ptr, ptr %10, align 8, !tbaa !417
  %12 = getelementptr inbounds nuw %class.anon.13, ptr %6, i32 0, i32 2
  %13 = load ptr, ptr %12, align 8, !tbaa !418
  %14 = load ptr, ptr %13, align 8, !tbaa !60
  %15 = call { <2 x float>, <2 x float> } @_ZNK4pbrt18OrthographicCamera2WeERKNS_3RayERNS_18SampledWavelengthsEPNS_6Point2IfEE(ptr noundef nonnull align 8 dereferenceable(1440) %7, ptr noundef nonnull align 8 dereferenceable(40) %9, ptr noundef nonnull align 4 dereferenceable(32) %11, ptr noundef %14)
  %16 = getelementptr inbounds nuw %"class.pbrt::SampledSpectrum", ptr %3, i32 0, i32 0
  %17 = getelementptr inbounds nuw %"class.pstd::array", ptr %16, i32 0, i32 0
  %18 = getelementptr inbounds nuw { <2 x float>, <2 x float> }, ptr %17, i32 0, i32 0
  %19 = extractvalue { <2 x float>, <2 x float> } %15, 0
  store <2 x float> %19, ptr %18, align 4
  %20 = getelementptr inbounds nuw { <2 x float>, <2 x float> }, ptr %17, i32 0, i32 1
  %21 = extractvalue { <2 x float>, <2 x float> } %15, 1
  store <2 x float> %21, ptr %20, align 4
  %22 = getelementptr inbounds nuw %"class.pbrt::SampledSpectrum", ptr %3, i32 0, i32 0
  %23 = getelementptr inbounds nuw %"class.pstd::array", ptr %22, i32 0, i32 0
  %24 = load { <2 x float>, <2 x float> }, ptr %23, align 4
  ret { <2 x float>, <2 x float> } %24
}

; Function Attrs: inlinehint mustprogress uwtable
define internal { <2 x float>, <2 x float> } @"_ZZNK4pbrt6Camera2WeERKNS_3RayERNS_18SampledWavelengthsEPNS_6Point2IfEEENK3$_0clIPKNS_17PerspectiveCameraEEEDaT_"(ptr noundef nonnull align 8 dereferenceable(24) %0, ptr noundef %1) #11 align 2 {
  %3 = alloca %"class.pbrt::SampledSpectrum", align 4
  %4 = alloca ptr, align 8
  %5 = alloca ptr, align 8
  store ptr %0, ptr %4, align 8, !tbaa !57
  store ptr %1, ptr %5, align 8, !tbaa !174
  %6 = load ptr, ptr %4, align 8
  %7 = load ptr, ptr %5, align 8, !tbaa !174
  %8 = getelementptr inbounds nuw %class.anon.13, ptr %6, i32 0, i32 0
  %9 = load ptr, ptr %8, align 8, !tbaa !415
  %10 = getelementptr inbounds nuw %class.anon.13, ptr %6, i32 0, i32 1
  %11 = load ptr, ptr %10, align 8, !tbaa !417
  %12 = getelementptr inbounds nuw %class.anon.13, ptr %6, i32 0, i32 2
  %13 = load ptr, ptr %12, align 8, !tbaa !418
  %14 = load ptr, ptr %13, align 8, !tbaa !60
  %15 = call { <2 x float>, <2 x float> } @_ZNK4pbrt17PerspectiveCamera2WeERKNS_3RayERNS_18SampledWavelengthsEPNS_6Point2IfEE(ptr noundef nonnull align 8 dereferenceable(1448) %7, ptr noundef nonnull align 8 dereferenceable(40) %9, ptr noundef nonnull align 4 dereferenceable(32) %11, ptr noundef %14)
  %16 = getelementptr inbounds nuw %"class.pbrt::SampledSpectrum", ptr %3, i32 0, i32 0
  %17 = getelementptr inbounds nuw %"class.pstd::array", ptr %16, i32 0, i32 0
  %18 = getelementptr inbounds nuw { <2 x float>, <2 x float> }, ptr %17, i32 0, i32 0
  %19 = extractvalue { <2 x float>, <2 x float> } %15, 0
  store <2 x float> %19, ptr %18, align 4
  %20 = getelementptr inbounds nuw { <2 x float>, <2 x float> }, ptr %17, i32 0, i32 1
  %21 = extractvalue { <2 x float>, <2 x float> } %15, 1
  store <2 x float> %21, ptr %20, align 4
  %22 = getelementptr inbounds nuw %"class.pbrt::SampledSpectrum", ptr %3, i32 0, i32 0
  %23 = getelementptr inbounds nuw %"class.pstd::array", ptr %22, i32 0, i32 0
  %24 = load { <2 x float>, <2 x float> }, ptr %23, align 4
  ret { <2 x float>, <2 x float> } %24
}

; Function Attrs: mustprogress uwtable
define internal { <2 x float>, <2 x float> } @"_ZN4pbrt6detail8DispatchIRZNKS_6Camera2WeERKNS_3RayERNS_18SampledWavelengthsEPNS_6Point2IfEEE3$_0NS_15SampledSpectrumENS_17PerspectiveCameraENS_18OrthographicCameraENS_15SphericalCameraENS_15RealisticCameraEEET0_OT_PKvi"(ptr noundef nonnull align 8 dereferenceable(24) %0, ptr noundef %1, i32 noundef %2) #3 {
  %4 = alloca %"class.pbrt::SampledSpectrum", align 4
  %5 = alloca ptr, align 8
  %6 = alloca ptr, align 8
  %7 = alloca i32, align 4
  store ptr %0, ptr %5, align 8, !tbaa !57
  store ptr %1, ptr %6, align 8, !tbaa !57
  store i32 %2, ptr %7, align 4, !tbaa !48
  br label %8

8:                                                ; preds = %3
  br label %9

9:                                                ; preds = %8
  br label %10

10:                                               ; preds = %9
  br label %11

11:                                               ; preds = %10
  %12 = load i32, ptr %7, align 4, !tbaa !48
  switch i32 %12, label %43 [
    i32 0, label %13
    i32 1, label %23
    i32 2, label %33
  ]

13:                                               ; preds = %11
  %14 = load ptr, ptr %5, align 8, !tbaa !57
  %15 = load ptr, ptr %6, align 8, !tbaa !57
  %16 = call { <2 x float>, <2 x float> } @"_ZZNK4pbrt6Camera2WeERKNS_3RayERNS_18SampledWavelengthsEPNS_6Point2IfEEENK3$_0clIPKNS_17PerspectiveCameraEEEDaT_"(ptr noundef nonnull align 8 dereferenceable(24) %14, ptr noundef %15)
  %17 = getelementptr inbounds nuw %"class.pbrt::SampledSpectrum", ptr %4, i32 0, i32 0
  %18 = getelementptr inbounds nuw %"class.pstd::array", ptr %17, i32 0, i32 0
  %19 = getelementptr inbounds nuw { <2 x float>, <2 x float> }, ptr %18, i32 0, i32 0
  %20 = extractvalue { <2 x float>, <2 x float> } %16, 0
  store <2 x float> %20, ptr %19, align 4
  %21 = getelementptr inbounds nuw { <2 x float>, <2 x float> }, ptr %18, i32 0, i32 1
  %22 = extractvalue { <2 x float>, <2 x float> } %16, 1
  store <2 x float> %22, ptr %21, align 4
  br label %53

23:                                               ; preds = %11
  %24 = load ptr, ptr %5, align 8, !tbaa !57
  %25 = load ptr, ptr %6, align 8, !tbaa !57
  %26 = call { <2 x float>, <2 x float> } @"_ZZNK4pbrt6Camera2WeERKNS_3RayERNS_18SampledWavelengthsEPNS_6Point2IfEEENK3$_0clIPKNS_18OrthographicCameraEEEDaT_"(ptr noundef nonnull align 8 dereferenceable(24) %24, ptr noundef %25)
  %27 = getelementptr inbounds nuw %"class.pbrt::SampledSpectrum", ptr %4, i32 0, i32 0
  %28 = getelementptr inbounds nuw %"class.pstd::array", ptr %27, i32 0, i32 0
  %29 = getelementptr inbounds nuw { <2 x float>, <2 x float> }, ptr %28, i32 0, i32 0
  %30 = extractvalue { <2 x float>, <2 x float> } %26, 0
  store <2 x float> %30, ptr %29, align 4
  %31 = getelementptr inbounds nuw { <2 x float>, <2 x float> }, ptr %28, i32 0, i32 1
  %32 = extractvalue { <2 x float>, <2 x float> } %26, 1
  store <2 x float> %32, ptr %31, align 4
  br label %53

33:                                               ; preds = %11
  %34 = load ptr, ptr %5, align 8, !tbaa !57
  %35 = load ptr, ptr %6, align 8, !tbaa !57
  %36 = call { <2 x float>, <2 x float> } @"_ZZNK4pbrt6Camera2WeERKNS_3RayERNS_18SampledWavelengthsEPNS_6Point2IfEEENK3$_0clIPKNS_15SphericalCameraEEEDaT_"(ptr noundef nonnull align 8 dereferenceable(24) %34, ptr noundef %35)
  %37 = getelementptr inbounds nuw %"class.pbrt::SampledSpectrum", ptr %4, i32 0, i32 0
  %38 = getelementptr inbounds nuw %"class.pstd::array", ptr %37, i32 0, i32 0
  %39 = getelementptr inbounds nuw { <2 x float>, <2 x float> }, ptr %38, i32 0, i32 0
  %40 = extractvalue { <2 x float>, <2 x float> } %36, 0
  store <2 x float> %40, ptr %39, align 4
  %41 = getelementptr inbounds nuw { <2 x float>, <2 x float> }, ptr %38, i32 0, i32 1
  %42 = extractvalue { <2 x float>, <2 x float> } %36, 1
  store <2 x float> %42, ptr %41, align 4
  br label %53

43:                                               ; preds = %11
  %44 = load ptr, ptr %5, align 8, !tbaa !57
  %45 = load ptr, ptr %6, align 8, !tbaa !57
  %46 = call { <2 x float>, <2 x float> } @"_ZZNK4pbrt6Camera2WeERKNS_3RayERNS_18SampledWavelengthsEPNS_6Point2IfEEENK3$_0clIPKNS_15RealisticCameraEEEDaT_"(ptr noundef nonnull align 8 dereferenceable(24) %44, ptr noundef %45)
  %47 = getelementptr inbounds nuw %"class.pbrt::SampledSpectrum", ptr %4, i32 0, i32 0
  %48 = getelementptr inbounds nuw %"class.pstd::array", ptr %47, i32 0, i32 0
  %49 = getelementptr inbounds nuw { <2 x float>, <2 x float> }, ptr %48, i32 0, i32 0
  %50 = extractvalue { <2 x float>, <2 x float> } %46, 0
  store <2 x float> %50, ptr %49, align 4
  %51 = getelementptr inbounds nuw { <2 x float>, <2 x float> }, ptr %48, i32 0, i32 1
  %52 = extractvalue { <2 x float>, <2 x float> } %46, 1
  store <2 x float> %52, ptr %51, align 4
  br label %53

53:                                               ; preds = %43, %33, %23, %13
  %54 = getelementptr inbounds nuw %"class.pbrt::SampledSpectrum", ptr %4, i32 0, i32 0
  %55 = getelementptr inbounds nuw %"class.pstd::array", ptr %54, i32 0, i32 0
  %56 = load { <2 x float>, <2 x float> }, ptr %55, align 4
  ret { <2 x float>, <2 x float> } %56
}

; Function Attrs: mustprogress nounwind uwtable
define linkonce_odr dso_local noundef i32 @_ZNK4pbrt13TaggedPointerIJNS_17PerspectiveCameraENS_18OrthographicCameraENS_15SphericalCameraENS_15RealisticCameraEEE3TagEv(ptr noundef nonnull align 8 dereferenceable(8) %0) #6 comdat align 2 {
  %2 = alloca ptr, align 8
  store ptr %0, ptr %2, align 8, !tbaa !55
  %3 = load ptr, ptr %2, align 8
  %4 = getelementptr inbounds nuw %"class.pbrt::TaggedPointer", ptr %3, i32 0, i32 0
  %5 = load i64, ptr %4, align 8, !tbaa !75
  %6 = and i64 %5, -144115188075855872
  %7 = lshr i64 %6, 57
  %8 = trunc i64 %7 to i32
  ret i32 %8
}

; Function Attrs: mustprogress nounwind uwtable
define linkonce_odr dso_local noundef ptr @_ZNK4pbrt13TaggedPointerIJNS_17PerspectiveCameraENS_18OrthographicCameraENS_15SphericalCameraENS_15RealisticCameraEEE3ptrEv(ptr noundef nonnull align 8 dereferenceable(8) %0) #6 comdat align 2 {
  %2 = alloca ptr, align 8
  store ptr %0, ptr %2, align 8, !tbaa !55
  %3 = load ptr, ptr %2, align 8
  %4 = getelementptr inbounds nuw %"class.pbrt::TaggedPointer", ptr %3, i32 0, i32 0
  %5 = load i64, ptr %4, align 8, !tbaa !75
  %6 = and i64 %5, 144115188075855871
  %7 = inttoptr i64 %6 to ptr
  ret ptr %7
}

; Function Attrs: mustprogress uwtable
define internal { <2 x float>, <2 x float> } @"_ZNK4pbrt13TaggedPointerIJNS_17PerspectiveCameraENS_18OrthographicCameraENS_15SphericalCameraENS_15RealisticCameraEEE8DispatchIRZNKS_6Camera2WeERKNS_3RayERNS_18SampledWavelengthsEPNS_6Point2IfEEE3$_0EEDcOT_"(ptr noundef nonnull align 8 dereferenceable(8) %0, ptr noundef nonnull align 8 dereferenceable(24) %1) #3 align 2 {
  %3 = alloca %"class.pbrt::SampledSpectrum", align 4
  %4 = alloca ptr, align 8
  %5 = alloca ptr, align 8
  store ptr %0, ptr %4, align 8, !tbaa !55
  store ptr %1, ptr %5, align 8, !tbaa !57
  %6 = load ptr, ptr %4, align 8
  br label %7

7:                                                ; preds = %2
  br label %8

8:                                                ; preds = %7
  %9 = load ptr, ptr %5, align 8, !tbaa !57
  %10 = call noundef ptr @_ZNK4pbrt13TaggedPointerIJNS_17PerspectiveCameraENS_18OrthographicCameraENS_15SphericalCameraENS_15RealisticCameraEEE3ptrEv(ptr noundef nonnull align 8 dereferenceable(8) %6)
  %11 = call noundef i32 @_ZNK4pbrt13TaggedPointerIJNS_17PerspectiveCameraENS_18OrthographicCameraENS_15SphericalCameraENS_15RealisticCameraEEE3TagEv(ptr noundef nonnull align 8 dereferenceable(8) %6)
  %12 = sub i32 %11, 1
  %13 = call { <2 x float>, <2 x float> } @"_ZN4pbrt6detail8DispatchIRZNKS_6Camera2WeERKNS_3RayERNS_18SampledWavelengthsEPNS_6Point2IfEEE3$_0NS_15SampledSpectrumENS_17PerspectiveCameraENS_18OrthographicCameraENS_15SphericalCameraENS_15RealisticCameraEEET0_OT_PKvi"(ptr noundef nonnull align 8 dereferenceable(24) %9, ptr noundef %10, i32 noundef %12)
  %14 = getelementptr inbounds nuw %"class.pbrt::SampledSpectrum", ptr %3, i32 0, i32 0
  %15 = getelementptr inbounds nuw %"class.pstd::array", ptr %14, i32 0, i32 0
  %16 = getelementptr inbounds nuw { <2 x float>, <2 x float> }, ptr %15, i32 0, i32 0
  %17 = extractvalue { <2 x float>, <2 x float> } %13, 0
  store <2 x float> %17, ptr %16, align 4
  %18 = getelementptr inbounds nuw { <2 x float>, <2 x float> }, ptr %15, i32 0, i32 1
  %19 = extractvalue { <2 x float>, <2 x float> } %13, 1
  store <2 x float> %19, ptr %18, align 4
  %20 = getelementptr inbounds nuw %"class.pbrt::SampledSpectrum", ptr %3, i32 0, i32 0
  %21 = getelementptr inbounds nuw %"class.pstd::array", ptr %20, i32 0, i32 0
  %22 = load { <2 x float>, <2 x float> }, ptr %21, align 4
  ret { <2 x float>, <2 x float> } %22
}

; Function Attrs: mustprogress uwtable
define dso_local { <2 x float>, <2 x float> } @_ZNK4pbrt6Camera2WeERKNS_3RayERNS_18SampledWavelengthsEPNS_6Point2IfEE(ptr noundef nonnull align 8 dereferenceable(8) %0, ptr noundef nonnull align 8 dereferenceable(40) %1, ptr noundef nonnull align 4 dereferenceable(32) %2, ptr noundef %3) #3 align 2 {
  %5 = alloca %"class.pbrt::SampledSpectrum", align 4
  %6 = alloca ptr, align 8
  %7 = alloca ptr, align 8
  %8 = alloca ptr, align 8
  %9 = alloca ptr, align 8
  %10 = alloca %class.anon.13, align 8
  store ptr %0, ptr %6, align 8, !tbaa !49
  store ptr %1, ptr %7, align 8, !tbaa !58
  store ptr %2, ptr %8, align 8, !tbaa !51
  store ptr %3, ptr %9, align 8, !tbaa !60
  %11 = load ptr, ptr %6, align 8
  call void @llvm.lifetime.start.p0(i64 24, ptr %10) #15
  %12 = getelementptr inbounds nuw %class.anon.13, ptr %10, i32 0, i32 0
  %13 = load ptr, ptr %7, align 8, !tbaa !58
  store ptr %13, ptr %12, align 8, !tbaa !58
  %14 = getelementptr inbounds nuw %class.anon.13, ptr %10, i32 0, i32 1
  %15 = load ptr, ptr %8, align 8, !tbaa !51
  store ptr %15, ptr %14, align 8, !tbaa !51
  %16 = getelementptr inbounds nuw %class.anon.13, ptr %10, i32 0, i32 2
  store ptr %9, ptr %16, align 8, !tbaa !62
  %17 = call { <2 x float>, <2 x float> } @"_ZNK4pbrt13TaggedPointerIJNS_17PerspectiveCameraENS_18OrthographicCameraENS_15SphericalCameraENS_15RealisticCameraEEE8DispatchIRZNKS_6Camera2WeERKNS_3RayERNS_18SampledWavelengthsEPNS_6Point2IfEEE3$_0EEDcOT_"(ptr noundef nonnull align 8 dereferenceable(8) %11, ptr noundef nonnull align 8 dereferenceable(24) %10)
  %18 = getelementptr inbounds nuw %"class.pbrt::SampledSpectrum", ptr %5, i32 0, i32 0
  %19 = getelementptr inbounds nuw %"class.pstd::array", ptr %18, i32 0, i32 0
  %20 = getelementptr inbounds nuw { <2 x float>, <2 x float> }, ptr %19, i32 0, i32 0
  %21 = extractvalue { <2 x float>, <2 x float> } %17, 0
  store <2 x float> %21, ptr %20, align 4
  %22 = getelementptr inbounds nuw { <2 x float>, <2 x float> }, ptr %19, i32 0, i32 1
  %23 = extractvalue { <2 x float>, <2 x float> } %17, 1
  store <2 x float> %23, ptr %22, align 4
  call void @llvm.lifetime.end.p0(i64 24, ptr %10) #15
  %24 = getelementptr inbounds nuw %"class.pbrt::SampledSpectrum", ptr %5, i32 0, i32 0
  %25 = getelementptr inbounds nuw %"class.pstd::array", ptr %24, i32 0, i32 0
  %26 = load { <2 x float>, <2 x float> }, ptr %25, align 4
  ret { <2 x float>, <2 x float> } %26
}